#include <math.h>
#include <stdio.h>
#include <stdlib.h>
#include <string.h>

int main(){
	int k,i;
	scanf("%d",&k);
	for (i=0;i<k;i++){
		int n,j;
		double num[100],aver,sum=0,s=0;
		double * p;
		p=num;
		scanf("%d",&n);
		for (j=0;j<n;j++){
			scanf("%lf",p+j);
			s+=*(p+j);
		}
		aver=s/n;
		for (j=0;j<n;j++){
			sum+=((*(p+j)-aver)*(*(p+j)-aver));
		}
		sum/=n;
		s=sqrt(sum);
		printf("%.5lf\n",s);
	}
	return 0;
}

